; Function Attrs: mustprogress uwtable
define void @_ZN5arrow17LoggingMemoryPool8AllocateEllPPh(ptr dead_on_unwind noalias writable sret(%"class.arrow::Status") align 8 %0, ptr noundef nonnull readonly align 8 captures(none) dereferenceable(16) %1, i64 noundef %2, i64 noundef %3, ptr noundef %4) unnamed_addr #4 align 2 personality ptr @__gxx_personality_v0 {
  %6 = getelementptr inbounds nuw i8, ptr %1, i64 8
  %7 = load ptr, ptr %6, align 8, !tbaa !44
  %8 = load ptr, ptr %7, align 8, !tbaa !10
  %9 = getelementptr inbounds nuw i8, ptr %8, i64 16
  %10 = load ptr, ptr %9, align 8
  tail call void %10(ptr dead_on_unwind writable sret(%"class.arrow::Status") align 8 %0, ptr noundef nonnull align 8 dereferenceable(8) %7, i64 noundef %2, i64 noundef %3, ptr noundef %4)
  %11 = invoke noundef nonnull align 8 dereferenceable(8) ptr @_ZSt16__ostream_insertIcSt11char_traitsIcEERSt13basic_ostreamIT_T0_ES6_PKS3_l(ptr noundef nonnull align 8 dereferenceable(8) @_ZSt4cout, ptr noundef nonnull @.str.5, i64 noundef 17)
          to label %_ZStlsISt11char_traitsIcEERSt13basic_ostreamIcT_ES5_PKc.exit unwind label %34

_ZStlsISt11char_traitsIcEERSt13basic_ostreamIcT_ES5_PKc.exit: ; preds = %5
  %12 = invoke noundef nonnull align 8 dereferenceable(8) ptr @_ZNSo9_M_insertIlEERSoT_(ptr noundef nonnull align 8 dereferenceable(8) @_ZSt4cout, i64 noundef %2)
          to label %_ZNSolsEl.exit unwind label %34

_ZNSolsEl.exit:                                   ; preds = %_ZStlsISt11char_traitsIcEERSt13basic_ostreamIcT_ES5_PKc.exit
  %13 = invoke noundef nonnull align 8 dereferenceable(8) ptr @_ZSt16__ostream_insertIcSt11char_traitsIcEERSt13basic_ostreamIT_T0_ES6_PKS3_l(ptr noundef nonnull align 8 dereferenceable(8) %12, ptr noundef nonnull @.str.6, i64 noundef 14)
          to label %_ZStlsISt11char_traitsIcEERSt13basic_ostreamIcT_ES5_PKc.exit8 unwind label %34

_ZStlsISt11char_traitsIcEERSt13basic_ostreamIcT_ES5_PKc.exit8: ; preds = %_ZNSolsEl.exit
  %14 = invoke noundef nonnull align 8 dereferenceable(8) ptr @_ZNSo9_M_insertIlEERSoT_(ptr noundef nonnull align 8 dereferenceable(8) %12, i64 noundef %3)
          to label %_ZNSolsEl.exit9 unwind label %34

_ZNSolsEl.exit9:                                  ; preds = %_ZStlsISt11char_traitsIcEERSt13basic_ostreamIcT_ES5_PKc.exit8
  %15 = load ptr, ptr %14, align 8, !tbaa !10
  %16 = getelementptr i8, ptr %15, i64 -24
  %17 = load i64, ptr %16, align 8
  %18 = getelementptr inbounds i8, ptr %14, i64 %17
  %19 = getelementptr inbounds nuw i8, ptr %18, i64 240
  %20 = load ptr, ptr %19, align 8, !tbaa !47
  %.not.i.i.i = icmp eq ptr %20, null
  br i1 %.not.i.i.i, label %21, label %_ZSt13__check_facetISt5ctypeIcEERKT_PS3_.exit.i.i

21:                                               ; preds = %_ZNSolsEl.exit9
  invoke void @_ZSt16__throw_bad_castv() #36
          to label %.noexc unwind label %34

.noexc:                                           ; preds = %21
  unreachable

_ZSt13__check_facetISt5ctypeIcEERKT_PS3_.exit.i.i: ; preds = %_ZNSolsEl.exit9
  %22 = getelementptr inbounds nuw i8, ptr %20, i64 56
  %23 = load i8, ptr %22, align 8, !tbaa !63
  %.not.i1.i.i = icmp eq i8 %23, 0
  br i1 %.not.i1.i.i, label %27, label %24

24:                                               ; preds = %_ZSt13__check_facetISt5ctypeIcEERKT_PS3_.exit.i.i
  %25 = getelementptr inbounds nuw i8, ptr %20, i64 67
  %26 = load i8, ptr %25, align 1, !tbaa !43
  br label %_ZNKSt9basic_iosIcSt11char_traitsIcEE5widenEc.exit.i

27:                                               ; preds = %_ZSt13__check_facetISt5ctypeIcEERKT_PS3_.exit.i.i
  invoke void @_ZNKSt5ctypeIcE13_M_widen_initEv(ptr noundef nonnull align 8 dereferenceable(570) %20)
          to label %.noexc10 unwind label %34

.noexc10:                                         ; preds = %27
  %28 = load ptr, ptr %20, align 8, !tbaa !10
  %29 = getelementptr inbounds nuw i8, ptr %28, i64 48
  %30 = load ptr, ptr %29, align 8
  %31 = invoke noundef signext i8 %30(ptr noundef nonnull align 8 dereferenceable(570) %20, i8 noundef signext 10)
          to label %_ZNKSt9basic_iosIcSt11char_traitsIcEE5widenEc.exit.i unwind label %34

_ZNKSt9basic_iosIcSt11char_traitsIcEE5widenEc.exit.i: ; preds = %.noexc10, %24
  %.0.i.i.i = phi i8 [ %26, %24 ], [ %31, %.noexc10 ]
  %32 = invoke noundef nonnull align 8 dereferenceable(8) ptr @_ZNSo3putEc(ptr noundef nonnull align 8 dereferenceable(8) %14, i8 noundef signext %.0.i.i.i)
          to label %.noexc12 unwind label %34

.noexc12:                                         ; preds = %_ZNKSt9basic_iosIcSt11char_traitsIcEE5widenEc.exit.i
  %33 = invoke noundef nonnull align 8 dereferenceable(8) ptr @_ZNSo5flushEv(ptr noundef nonnull align 8 dereferenceable(8) %32)
          to label %_ZNSolsEPFRSoS_E.exit unwind label %34

34:                                               ; preds = %.noexc12, %_ZNKSt9basic_iosIcSt11char_traitsIcEE5widenEc.exit.i, %.noexc10, %27, %21, %_ZStlsISt11char_traitsIcEERSt13basic_ostreamIcT_ES5_PKc.exit8, %_ZNSolsEl.exit, %_ZStlsISt11char_traitsIcEERSt13basic_ostreamIcT_ES5_PKc.exit, %5
  %35 = landingpad { ptr, i32 }
          cleanup
  %36 = load ptr, ptr %0, align 8, !tbaa !21
  %.not.i = icmp eq ptr %36, null
  br i1 %.not.i, label %_ZN5arrow6StatusD2Ev.exit, label %37, !prof !27

37:                                               ; preds = %34
  %38 = getelementptr inbounds nuw i8, ptr %36, i64 1
  %39 = load i8, ptr %38, align 1, !tbaa !28, !range !8, !noundef !9
  %40 = trunc nuw i8 %39 to i1
  br i1 %40, label %_ZN5arrow6StatusD2Ev.exit, label %41

41:                                               ; preds = %37
  tail call void @_ZN5arrow6Status11DeleteStateEv(ptr noundef nonnull align 8 dereferenceable(8) %0) #32
  br label %_ZN5arrow6StatusD2Ev.exit

_ZN5arrow6StatusD2Ev.exit:                        ; preds = %34, %37, %41
  resume { ptr, i32 } %35

_ZNSolsEPFRSoS_E.exit:                            ; preds = %.noexc12
  ret void
}